target datalayout = "e-m:e-p270:32:32-p271:32:32-p272:64:64-i64:64-i128:128-f80:128-n8:16:32:64-S128"
target triple = "x86_64-pc-linux-gnu"

%struct.redisServer = type { i32, i64, ptr, ptr, ptr, i32, i32, i32, i32, i32, ptr, ptr, ptr, ptr, ptr, i32, i32, i32, i32, i64, i32, i32, i32, i32, ptr, i32, i32, [41 x i8], i32, i64, i32, i32, i32, ptr, ptr, i32, i32, i64, ptr, ptr, ptr, ptr, [2 x i32], i32, i32, i32, i32, i32, i32, [16 x ptr], i32, ptr, ptr, i32, [8 x %struct.connListener], i32, %struct.connListener, ptr, ptr, ptr, ptr, ptr, ptr, ptr, ptr, ptr, ptr, i32, ptr, i32, ptr, [3 x %struct.pause_event], [256 x i8], ptr, i64, i32, i32, [128 x i32], i32, i32, i64, i32, i32, i32, i32, i32, i64, i64, i64, i64, i64, i64, i64, i64, i64, i64, double, i64, i64, i64, i64, i64, i64, i64, i64, i64, i64, i64, i64, i64, i64, i64, i64, i64, i64, i64, i64, i64, double, i64, i64, i64, i64, i64, ptr, i64, i64, i64, %struct.malloc_stats, i64, i64, i64, i64, i64, i64, i64, i64, i64, i64, i64, i64, double, [4 x i64], i64, i64, i64, i64, [128 x i64], [128 x i64], i64, i64, [7 x %struct.anon], i64, i64, i64, i64, i64, i64, [4 x %struct.durationStats], i32, i32, i32, i32, i32, i32, i32, i32, i32, i32, i32, i32, i64, i32, i32, i32, i32, i64, i64, i32, i32, i32, i32, i32, ptr, [3 x %struct.clientBufferLimitsConfig], i32, i32, i32, ptr, i32, i32, i32, i32, i32, i32, ptr, ptr, i32, i32, i64, i64, i64, i64, i64, i32, i32, ptr, i32, i32, i64, i64, i64, i64, i64, i32, i32, i64, i32, i32, i32, i32, i32, i32, i32, i32, ptr, i32, i64, i64, i64, i64, i32, ptr, i32, ptr, i32, i32, i32, i64, i64, i64, i64, i32, i32, i32, i32, i32, i32, ptr, i32, i32, ptr, i32, i32, i32, [2 x i32], i32, %struct.redisOpArray, i32, ptr, i32, ptr, i32, i32, i32, i32, i32, i32, i32, [41 x i8], [41 x i8], i64, i64, i64, i64, i32, i32, ptr, i64, i64, %struct.replDataBuf, i64, i64, i32, i32, i32, i32, i32, i32, i32, i32, i32, i64, ptr, i64, ptr, ptr, ptr, i32, i32, ptr, ptr, i32, i32, i32, i64, i64, i64, i64, ptr, ptr, i32, ptr, i64, i32, i32, i32, i64, i32, i32, i32, i32, ptr, i32, i32, [41 x i8], i64, i32, ptr, i32, i32, i64, i64, i32, i32, i32, i32, i32, i64, [3 x i32], i32, i32, i32, [10 x i32], ptr, ptr, i32, i64, ptr, ptr, i32, i32, i32, i32, i64, i64, i64, i64, i64, i64, i64, i64, i64, i64, i32, i32, i64, i64, i32, i64, i64, i64, i64, i64, ptr, ptr, i32, ptr, i32, i32, i32, i32, i64, i64, ptr, ptr, i32, i32, i32, i32, i32, ptr, ptr, ptr, i32, i32, i32, i32, i32, i32, i32, i64, i32, i32, i64, i32, i32, i32, i32, i32, i32, i32, i64, ptr, ptr, i64, ptr, i32, %struct.aclInfo, i32, i64, i32, i32, i32, %struct.redisTLSContextConfig, ptr, ptr, ptr, ptr, ptr, i64, i32, ptr, i32, i32, i32, i64, i32, ptr }
%struct.connListener = type { [16 x i32], i32, ptr, i32, i32, ptr, ptr }
%struct.pause_event = type { i32, i64 }
%struct.malloc_stats = type { i64, i64, i64, i64, i64, i64, i64, i64, i64, i64, i64 }
%struct.anon = type { i64, i64, [16 x i64], i32 }
%struct.durationStats = type { i64, i64, i64 }
%struct.clientBufferLimitsConfig = type { i64, i64, i64 }
%struct.redisOpArray = type { ptr, i32, i32 }
%struct.replDataBuf = type { ptr, i64, i64, i64, i64 }
%struct.aclInfo = type { i64, i64, i64, i64 }
%struct.redisTLSContextConfig = type { ptr, ptr, ptr, ptr, ptr, ptr, ptr, ptr, ptr, ptr, ptr, ptr, i32, i32, i32, i32 }
%struct.migrateCachedSocket = type { ptr, i64, i64 }
%struct.connection = type { ptr, i32, i32, i32, i16, i16, i16, ptr, ptr, ptr, ptr, ptr }
%struct.ConnectionType = type { ptr, ptr, ptr, ptr, ptr, ptr, ptr, ptr, ptr, ptr, ptr, ptr, ptr, ptr, ptr, ptr, ptr, ptr, ptr, ptr, ptr, ptr, ptr, ptr, ptr, ptr, ptr, ptr, ptr, ptr }

@server = external global %struct.redisServer, align 8

; Function Attrs: inlinehint nounwind uwtable
define internal void @connClose(ptr noundef %0) #5 {
  %2 = alloca ptr, align 8
  store ptr %0, ptr %2, align 8, !tbaa !90
  %3 = load ptr, ptr %2, align 8, !tbaa !90
  %4 = getelementptr inbounds nuw %struct.connection, ptr %3, i32 0, i32 0
  %5 = load ptr, ptr %4, align 8, !tbaa !92
  %6 = getelementptr inbounds nuw %struct.ConnectionType, ptr %5, i32 0, i32 12
  %7 = load ptr, ptr %6, align 8, !tbaa !94
  %8 = load ptr, ptr %2, align 8, !tbaa !90
  call void %7(ptr noundef %8)
  ret void
}

; Function Attrs: nounwind uwtable
define dso_local void @migrateCloseTimedoutSockets() #0 {
  %1 = alloca ptr, align 8
  %2 = alloca ptr, align 8
  %3 = alloca ptr, align 8
  call void @llvm.lifetime.start.p0(i64 8, ptr %1) #14
  %4 = load ptr, ptr getelementptr inbounds nuw (%struct.redisServer, ptr @server, i32 0, i32 73), align 8, !tbaa !82
  %5 = call ptr @dictGetSafeIterator(ptr noundef %4)
  store ptr %5, ptr %1, align 8, !tbaa !100
  call void @llvm.lifetime.start.p0(i64 8, ptr %2) #14
  br label %6

6:                                                ; preds = %28, %0
  %7 = load ptr, ptr %1, align 8, !tbaa !100
  %8 = call ptr @dictNext(ptr noundef %7)
  store ptr %8, ptr %2, align 8, !tbaa !80
  %9 = icmp ne ptr %8, null
  br i1 %9, label %10, label %29

10:                                               ; preds = %6
  call void @llvm.lifetime.start.p0(i64 8, ptr %3) #14
  %11 = load ptr, ptr %2, align 8, !tbaa !80
  %12 = call ptr @dictGetVal(ptr noundef %11)
  store ptr %12, ptr %3, align 8, !tbaa !83
  %13 = load atomic i64, ptr getelementptr inbounds nuw (%struct.redisServer, ptr @server, i32 0, i32 366) seq_cst, align 8, !tbaa !85
  %14 = load ptr, ptr %3, align 8, !tbaa !83
  %15 = getelementptr inbounds nuw %struct.migrateCachedSocket, ptr %14, i32 0, i32 2
  %16 = load i64, ptr %15, align 8, !tbaa !86
  %17 = sub nsw i64 %13, %16
  %18 = icmp sgt i64 %17, 10
  br i1 %18, label %19, label %28

19:                                               ; preds = %10
  %20 = load ptr, ptr %3, align 8, !tbaa !83
  %21 = getelementptr inbounds nuw %struct.migrateCachedSocket, ptr %20, i32 0, i32 0
  %22 = load ptr, ptr %21, align 8, !tbaa !88
  call void @connClose(ptr noundef %22)
  %23 = load ptr, ptr %3, align 8, !tbaa !83
  call void @zfree(ptr noundef %23)
  %24 = load ptr, ptr getelementptr inbounds nuw (%struct.redisServer, ptr @server, i32 0, i32 73), align 8, !tbaa !82
  %25 = load ptr, ptr %2, align 8, !tbaa !80
  %26 = call ptr @dictGetKey(ptr noundef %25)
  %27 = call i32 @dictDelete(ptr noundef %24, ptr noundef %26)
  br label %28

28:                                               ; preds = %19, %10
  call void @llvm.lifetime.end.p0(i64 8, ptr %3) #14
  br label %6, !llvm.loop !102

29:                                               ; preds = %6
  %30 = load ptr, ptr %1, align 8, !tbaa !100
  call void @dictReleaseIterator(ptr noundef %30)
  call void @llvm.lifetime.end.p0(i64 8, ptr %2) #14
  call void @llvm.lifetime.end.p0(i64 8, ptr %1) #14
  ret void
}