; Function Attrs: nounwind uwtable
define dso_local void @migrateCloseTimedoutSockets() local_unnamed_addr #0 {
  %1 = load ptr, ptr getelementptr inbounds nuw (i8, ptr @server, i64 1848), align 8, !tbaa !74
  %2 = tail call ptr @dictGetSafeIterator(ptr noundef %1) #16
  %3 = tail call ptr @dictNext(ptr noundef %2) #16
  %.not7 = icmp eq ptr %3, null
  br i1 %.not7, label %._crit_edge, label %.lr.ph

.lr.ph:                                           ; preds = %0, %19
  %4 = phi ptr [ %20, %19 ], [ %3, %0 ]
  %5 = tail call ptr @dictGetVal(ptr noundef nonnull %4) #16
  %6 = load atomic i64, ptr getelementptr inbounds nuw (i8, ptr @server, i64 7784) seq_cst, align 8, !tbaa !75
  %7 = getelementptr inbounds nuw i8, ptr %5, i64 16
  %8 = load i64, ptr %7, align 8, !tbaa !76
  %9 = sub nsw i64 %6, %8
  %10 = icmp sgt i64 %9, 10
  br i1 %10, label %11, label %19

11:                                               ; preds = %.lr.ph
  %12 = load ptr, ptr %5, align 8, !tbaa !78
  %13 = load ptr, ptr %12, align 8, !tbaa !79
  %14 = getelementptr inbounds nuw i8, ptr %13, i64 96
  %15 = load ptr, ptr %14, align 8, !tbaa !81
  tail call void %15(ptr noundef nonnull %12) #16
  tail call void @zfree(ptr noundef nonnull %5) #16
  %16 = load ptr, ptr getelementptr inbounds nuw (i8, ptr @server, i64 1848), align 8, !tbaa !74
  %17 = tail call ptr @dictGetKey(ptr noundef nonnull %4) #16
  %18 = tail call i32 @dictDelete(ptr noundef %16, ptr noundef %17) #16
  br label %19

19:                                               ; preds = %11, %.lr.ph
  %20 = tail call ptr @dictNext(ptr noundef %2) #16
  %.not = icmp eq ptr %20, null
  br i1 %.not, label %._crit_edge, label %.lr.ph, !llvm.loop !87

._crit_edge:                                      ; preds = %19, %0
  tail call void @dictReleaseIterator(ptr noundef %2) #16
  ret void
}